(lp0
S'2'
p1
aS'1'
p2
ag2
ag2
ag2
ag1
ag1
ag1
ag2
ag2
ag2
ag1
ag2
ag2
ag1
ag2
ag2
ag2
ag1
ag1
ag1
ag2
ag2
ag2
aS'1'
p3
aS'2'
p4
ag3
ag4
ag3
ag3
ag3
ag3
ag4
ag3
ag3
ag3
ag4
ag3
ag4
ag4
ag3
ag3
ag3
ag3
ag4
ag4
ag3
ag3
ag3
ag4
ag3
ag3
ag4
ag4
ag4
ag4
ag4
ag4
ag4
ag4
ag4
ag4
ag4
ag4
ag3
ag3
ag4
ag3
ag4
ag4
ag3
ag4
ag4
ag4
ag3
ag3
ag4
ag4
ag3
ag4
ag4
ag4
ag4
ag4
ag4
ag4
ag3
ag3
ag4
ag3
ag4
ag3
ag3
ag4
ag3
ag4
ag3
ag4
ag4
ag3
ag4
ag3
ag4
ag4
ag4
ag4
ag4
ag4
ag4
ag4
ag3
ag3
ag4
ag3
ag4
ag3
ag3
ag3
ag3
ag4
ag4
ag3
ag4
ag4
ag4
ag3
ag3
ag4
ag3
ag3
ag3
ag3
ag4
ag3
ag3
ag4
ag4
ag4
ag4
ag4
ag4
ag3
ag3
ag3
ag3
ag3
ag4
ag3
ag4
ag3
ag3
ag3
ag4
ag4
ag4
ag3
ag3
ag3
ag3
ag4
ag4
ag4
ag4
ag4
ag3
ag3
ag4
ag3
ag3
ag3
ag3
ag4
ag4
ag3
ag4
ag4
ag4
ag3
ag3
ag3
ag4
ag4
ag4
ag3
ag4
ag3
ag3
ag4
ag4
ag3
ag3
ag4
ag4
ag4
ag4
ag4
ag3
ag4
ag3
ag4
ag4
ag4
ag3
ag3
ag3
ag4
ag4
ag4
ag4
ag4
ag4
ag4
ag3
ag3
ag3
ag3
ag3
ag3
ag4
ag3
ag3
ag3
ag4
ag4
ag4
ag3
a.